; Function Attrs: mustprogress nofree nounwind willreturn memory(write, argmem: readwrite) uwtable
define void @_ZNK2cv11RotatedRect6pointsEPNS_6Point_IfEE(ptr noundef nonnull readonly align 4 captures(none) dereferenceable(20) %0, ptr noundef writeonly captures(none) initializes((0, 32)) %1) local_unnamed_addr #10 align 2 {
  %3 = getelementptr inbounds nuw i8, ptr %0, i64 16
  %4 = load float, ptr %3, align 4, !tbaa !56
  %5 = fpext float %4 to double
  %6 = fmul double %5, 0x400921FB54442D18
  %7 = fdiv double %6, 1.800000e+02
  %8 = tail call double @cos(double noundef %7) #20, !tbaa !31
  %9 = fptrunc double %8 to float
  %10 = fmul float %9, 5.000000e-01
  %11 = tail call double @sin(double noundef %7) #20, !tbaa !31
  %12 = fptrunc double %11 to float
  %13 = fmul float %12, 5.000000e-01
  %14 = load float, ptr %0, align 4, !tbaa !59
  %15 = getelementptr inbounds nuw i8, ptr %0, i64 8
  %16 = getelementptr inbounds nuw i8, ptr %0, i64 12
  %17 = load float, ptr %16, align 4, !tbaa !60
  %18 = fneg float %13
  %19 = tail call float @llvm.fmuladd.f32(float %18, float %17, float %14)
  %20 = load float, ptr %15, align 4, !tbaa !61
  %21 = fneg float %10
  %22 = tail call float @llvm.fmuladd.f32(float %21, float %20, float %19)
  store float %22, ptr %1, align 4, !tbaa !52
  %23 = getelementptr inbounds nuw i8, ptr %0, i64 4
  %24 = load float, ptr %23, align 4, !tbaa !62
  %25 = tail call float @llvm.fmuladd.f32(float %10, float %17, float %24)
  %26 = tail call float @llvm.fmuladd.f32(float %18, float %20, float %25)
  %27 = getelementptr inbounds nuw i8, ptr %1, i64 4
  store float %26, ptr %27, align 4, !tbaa !53
  %28 = load float, ptr %0, align 4, !tbaa !59
  %29 = tail call float @llvm.fmuladd.f32(float %13, float %17, float %28)
  %30 = tail call float @llvm.fmuladd.f32(float %21, float %20, float %29)
  %31 = getelementptr inbounds nuw i8, ptr %1, i64 8
  store float %30, ptr %31, align 4, !tbaa !52
  %32 = load float, ptr %23, align 4, !tbaa !62
  %33 = tail call float @llvm.fmuladd.f32(float %21, float %17, float %32)
  %34 = tail call float @llvm.fmuladd.f32(float %18, float %20, float %33)
  %35 = getelementptr inbounds nuw i8, ptr %1, i64 12
  store float %34, ptr %35, align 4, !tbaa !53
  %36 = load float, ptr %0, align 4, !tbaa !59
  %37 = fneg float %22
  %38 = tail call float @llvm.fmuladd.f32(float %36, float 2.000000e+00, float %37)
  %39 = getelementptr inbounds nuw i8, ptr %1, i64 16
  store float %38, ptr %39, align 4, !tbaa !52
  %40 = load float, ptr %23, align 4, !tbaa !62
  %41 = fneg float %26
  %42 = tail call float @llvm.fmuladd.f32(float %40, float 2.000000e+00, float %41)
  %43 = getelementptr inbounds nuw i8, ptr %1, i64 20
  store float %42, ptr %43, align 4, !tbaa !53
  %44 = load float, ptr %0, align 4, !tbaa !59
  %45 = fneg float %30
  %46 = tail call float @llvm.fmuladd.f32(float %44, float 2.000000e+00, float %45)
  %47 = getelementptr inbounds nuw i8, ptr %1, i64 24
  store float %46, ptr %47, align 4, !tbaa !52
  %48 = load float, ptr %23, align 4, !tbaa !62
  %49 = fneg float %34
  %50 = tail call float @llvm.fmuladd.f32(float %48, float 2.000000e+00, float %49)
  %51 = getelementptr inbounds nuw i8, ptr %1, i64 28
  store float %50, ptr %51, align 4, !tbaa !53
  ret void
}